target datalayout = "e-m:e-p270:32:32-p271:32:32-p272:64:64-i64:64-i128:128-f80:128-n8:16:32:64-S128"
target triple = "x86_64-pc-linux-gnu"

%struct.ident_t = type { i32, i32, i32, i32, ptr }
%"class.std::__cxx11::basic_string" = type { %"struct.std::__cxx11::basic_string<char>::_Alloc_hider", i64, %union.anon }
%"struct.std::__cxx11::basic_string<char>::_Alloc_hider" = type { ptr }
%union.anon = type { i64, [8 x i8] }
%"class.std::vector" = type { %"struct.std::_Vector_base" }
%"struct.std::_Vector_base" = type { %"struct.std::_Vector_base<std::__cxx11::basic_string<char>, std::allocator<std::__cxx11::basic_string<char>>>::_Vector_impl" }
%"struct.std::_Vector_base<std::__cxx11::basic_string<char>, std::allocator<std::__cxx11::basic_string<char>>>::_Vector_impl" = type { %"struct.std::_Vector_base<std::__cxx11::basic_string<char>, std::allocator<std::__cxx11::basic_string<char>>>::_Vector_impl_data" }
%"struct.std::_Vector_base<std::__cxx11::basic_string<char>, std::allocator<std::__cxx11::basic_string<char>>>::_Vector_impl_data" = type { ptr, ptr, ptr }
%"class.LightGBM::GBDT" = type { %"class.LightGBM::GBDTBase", i32, ptr, %"class.std::unique_ptr.12", %"class.std::unique_ptr.20", ptr, %"class.std::unique_ptr.28", %"class.std::vector.36", %"class.std::vector.41", %"class.std::vector.46", i32, double, i8, %"class.std::vector.51", %"class.std::vector.56", %"class.std::vector.61", %"class.std::vector.66", i32, %"class.std::__cxx11::basic_string", %"class.std::vector.71", %"class.std::vector.71", ptr, ptr, i8, i32, i32, i32, i32, i32, i32, double, i32, %"class.std::vector", %"class.std::vector", %"class.std::vector.73", i8, %"class.std::unique_ptr.77", i8, i8, i8, %"class.std::__cxx11::basic_string", %"class.std::vector.85", %"class.json11_internal_lightgbm::Json", i8, %"class.std::unique_ptr.90" }
%"class.LightGBM::GBDTBase" = type { %"class.LightGBM::Boosting" }
%"class.LightGBM::Boosting" = type { ptr }
%"class.std::unique_ptr.12" = type { %"struct.std::__uniq_ptr_data.13" }
%"struct.std::__uniq_ptr_data.13" = type { %"class.std::__uniq_ptr_impl.14" }
%"class.std::__uniq_ptr_impl.14" = type { %"class.std::tuple.15" }
%"class.std::tuple.15" = type { %"struct.std::_Tuple_impl.16" }
%"struct.std::_Tuple_impl.16" = type { %"struct.std::_Head_base.19" }
%"struct.std::_Head_base.19" = type { ptr }
%"class.std::unique_ptr.20" = type { %"struct.std::__uniq_ptr_data.21" }
%"struct.std::__uniq_ptr_data.21" = type { %"class.std::__uniq_ptr_impl.22" }
%"class.std::__uniq_ptr_impl.22" = type { %"class.std::tuple.23" }
%"class.std::tuple.23" = type { %"struct.std::_Tuple_impl.24" }
%"struct.std::_Tuple_impl.24" = type { %"struct.std::_Head_base.27" }
%"struct.std::_Head_base.27" = type { ptr }
%"class.std::unique_ptr.28" = type { %"struct.std::__uniq_ptr_data.29" }
%"struct.std::__uniq_ptr_data.29" = type { %"class.std::__uniq_ptr_impl.30" }
%"class.std::__uniq_ptr_impl.30" = type { %"class.std::tuple.31" }
%"class.std::tuple.31" = type { %"struct.std::_Tuple_impl.32" }
%"struct.std::_Tuple_impl.32" = type { %"struct.std::_Head_base.35" }
%"struct.std::_Head_base.35" = type { ptr }
%"class.std::vector.36" = type { %"struct.std::_Vector_base.37" }
%"struct.std::_Vector_base.37" = type { %"struct.std::_Vector_base<const LightGBM::Metric *, std::allocator<const LightGBM::Metric *>>::_Vector_impl" }
%"struct.std::_Vector_base<const LightGBM::Metric *, std::allocator<const LightGBM::Metric *>>::_Vector_impl" = type { %"struct.std::_Vector_base<const LightGBM::Metric *, std::allocator<const LightGBM::Metric *>>::_Vector_impl_data" }
%"struct.std::_Vector_base<const LightGBM::Metric *, std::allocator<const LightGBM::Metric *>>::_Vector_impl_data" = type { ptr, ptr, ptr }
%"class.std::vector.41" = type { %"struct.std::_Vector_base.42" }
%"struct.std::_Vector_base.42" = type { %"struct.std::_Vector_base<std::unique_ptr<LightGBM::ScoreUpdater>, std::allocator<std::unique_ptr<LightGBM::ScoreUpdater>>>::_Vector_impl" }
%"struct.std::_Vector_base<std::unique_ptr<LightGBM::ScoreUpdater>, std::allocator<std::unique_ptr<LightGBM::ScoreUpdater>>>::_Vector_impl" = type { %"struct.std::_Vector_base<std::unique_ptr<LightGBM::ScoreUpdater>, std::allocator<std::unique_ptr<LightGBM::ScoreUpdater>>>::_Vector_impl_data" }
%"struct.std::_Vector_base<std::unique_ptr<LightGBM::ScoreUpdater>, std::allocator<std::unique_ptr<LightGBM::ScoreUpdater>>>::_Vector_impl_data" = type { ptr, ptr, ptr }
%"class.std::vector.46" = type { %"struct.std::_Vector_base.47" }
%"struct.std::_Vector_base.47" = type { %"struct.std::_Vector_base<std::vector<const LightGBM::Metric *>, std::allocator<std::vector<const LightGBM::Metric *>>>::_Vector_impl" }
%"struct.std::_Vector_base<std::vector<const LightGBM::Metric *>, std::allocator<std::vector<const LightGBM::Metric *>>>::_Vector_impl" = type { %"struct.std::_Vector_base<std::vector<const LightGBM::Metric *>, std::allocator<std::vector<const LightGBM::Metric *>>>::_Vector_impl_data" }
%"struct.std::_Vector_base<std::vector<const LightGBM::Metric *>, std::allocator<std::vector<const LightGBM::Metric *>>>::_Vector_impl_data" = type { ptr, ptr, ptr }
%"class.std::vector.51" = type { %"struct.std::_Vector_base.52" }
%"struct.std::_Vector_base.52" = type { %"struct.std::_Vector_base<std::vector<int>, std::allocator<std::vector<int>>>::_Vector_impl" }
%"struct.std::_Vector_base<std::vector<int>, std::allocator<std::vector<int>>>::_Vector_impl" = type { %"struct.std::_Vector_base<std::vector<int>, std::allocator<std::vector<int>>>::_Vector_impl_data" }
%"struct.std::_Vector_base<std::vector<int>, std::allocator<std::vector<int>>>::_Vector_impl_data" = type { ptr, ptr, ptr }
%"class.std::vector.56" = type { %"struct.std::_Vector_base.57" }
%"struct.std::_Vector_base.57" = type { %"struct.std::_Vector_base<std::vector<double>, std::allocator<std::vector<double>>>::_Vector_impl" }
%"struct.std::_Vector_base<std::vector<double>, std::allocator<std::vector<double>>>::_Vector_impl" = type { %"struct.std::_Vector_base<std::vector<double>, std::allocator<std::vector<double>>>::_Vector_impl_data" }
%"struct.std::_Vector_base<std::vector<double>, std::allocator<std::vector<double>>>::_Vector_impl_data" = type { ptr, ptr, ptr }
%"class.std::vector.61" = type { %"struct.std::_Vector_base.62" }
%"struct.std::_Vector_base.62" = type { %"struct.std::_Vector_base<std::vector<std::__cxx11::basic_string<char>>, std::allocator<std::vector<std::__cxx11::basic_string<char>>>>::_Vector_impl" }
%"struct.std::_Vector_base<std::vector<std::__cxx11::basic_string<char>>, std::allocator<std::vector<std::__cxx11::basic_string<char>>>>::_Vector_impl" = type { %"struct.std::_Vector_base<std::vector<std::__cxx11::basic_string<char>>, std::allocator<std::vector<std::__cxx11::basic_string<char>>>>::_Vector_impl_data" }
%"struct.std::_Vector_base<std::vector<std::__cxx11::basic_string<char>>, std::allocator<std::vector<std::__cxx11::basic_string<char>>>>::_Vector_impl_data" = type { ptr, ptr, ptr }
%"class.std::vector.66" = type { %"struct.std::_Vector_base.67" }
%"struct.std::_Vector_base.67" = type { %"struct.std::_Vector_base<std::unique_ptr<LightGBM::Tree>, std::allocator<std::unique_ptr<LightGBM::Tree>>>::_Vector_impl" }
%"struct.std::_Vector_base<std::unique_ptr<LightGBM::Tree>, std::allocator<std::unique_ptr<LightGBM::Tree>>>::_Vector_impl" = type { %"struct.std::_Vector_base<std::unique_ptr<LightGBM::Tree>, std::allocator<std::unique_ptr<LightGBM::Tree>>>::_Vector_impl_data" }
%"struct.std::_Vector_base<std::unique_ptr<LightGBM::Tree>, std::allocator<std::unique_ptr<LightGBM::Tree>>>::_Vector_impl_data" = type { ptr, ptr, ptr }
%"class.std::vector.71" = type { %"struct.std::_Vector_base.72" }
%"struct.std::_Vector_base.72" = type { %"struct.std::_Vector_base<float, LightGBM::Common::AlignmentAllocator<float>>::_Vector_impl" }
%"struct.std::_Vector_base<float, LightGBM::Common::AlignmentAllocator<float>>::_Vector_impl" = type { %"struct.std::_Vector_base<float, LightGBM::Common::AlignmentAllocator<float>>::_Vector_impl_data" }
%"struct.std::_Vector_base<float, LightGBM::Common::AlignmentAllocator<float>>::_Vector_impl_data" = type { ptr, ptr, ptr }
%"class.std::vector.73" = type { %"struct.std::_Bvector_base" }
%"struct.std::_Bvector_base" = type { %"struct.std::_Bvector_base<std::allocator<bool>>::_Bvector_impl" }
%"struct.std::_Bvector_base<std::allocator<bool>>::_Bvector_impl" = type { %"struct.std::_Bvector_base<std::allocator<bool>>::_Bvector_impl_data" }
%"struct.std::_Bvector_base<std::allocator<bool>>::_Bvector_impl_data" = type { %"struct.std::_Bit_iterator", %"struct.std::_Bit_iterator", ptr }
%"struct.std::_Bit_iterator" = type { %"struct.std::_Bit_iterator_base.base", [4 x i8] }
%"struct.std::_Bit_iterator_base.base" = type <{ ptr, i32 }>
%"class.std::unique_ptr.77" = type { %"struct.std::__uniq_ptr_data.78" }
%"struct.std::__uniq_ptr_data.78" = type { %"class.std::__uniq_ptr_impl.79" }
%"class.std::__uniq_ptr_impl.79" = type { %"class.std::tuple.80" }
%"class.std::tuple.80" = type { %"struct.std::_Tuple_impl.81" }
%"struct.std::_Tuple_impl.81" = type { %"struct.std::_Head_base.84" }
%"struct.std::_Head_base.84" = type { ptr }
%"class.std::vector.85" = type { %"struct.std::_Vector_base.86" }
%"struct.std::_Vector_base.86" = type { %"struct.std::_Vector_base<signed char, std::allocator<signed char>>::_Vector_impl" }
%"struct.std::_Vector_base<signed char, std::allocator<signed char>>::_Vector_impl" = type { %"struct.std::_Vector_base<signed char, std::allocator<signed char>>::_Vector_impl_data" }
%"struct.std::_Vector_base<signed char, std::allocator<signed char>>::_Vector_impl_data" = type { ptr, ptr, ptr }
%"class.json11_internal_lightgbm::Json" = type { %"class.std::shared_ptr" }
%"class.std::shared_ptr" = type { %"class.std::__shared_ptr" }
%"class.std::__shared_ptr" = type { ptr, %"class.std::__shared_count" }
%"class.std::__shared_count" = type { ptr }
%"class.std::unique_ptr.90" = type { %"struct.std::__uniq_ptr_data.91" }
%"struct.std::__uniq_ptr_data.91" = type { %"class.std::__uniq_ptr_impl.92" }
%"class.std::__uniq_ptr_impl.92" = type { %"class.std::tuple.93" }
%"class.std::tuple.93" = type { %"struct.std::_Tuple_impl.94" }
%"struct.std::_Tuple_impl.94" = type { %"struct.std::_Head_base.97" }
%"struct.std::_Head_base.97" = type { ptr }
%"class.std::unique_ptr.123" = type { %"struct.std::__uniq_ptr_data.124" }
%"struct.std::__uniq_ptr_data.124" = type { %"class.std::__uniq_ptr_impl.125" }
%"class.std::__uniq_ptr_impl.125" = type { %"class.std::tuple.126" }
%"class.std::tuple.126" = type { %"struct.std::_Tuple_impl.127" }
%"struct.std::_Tuple_impl.127" = type { %"struct.std::_Head_base.130" }
%"struct.std::_Head_base.130" = type { ptr }

@1 = private unnamed_addr constant %struct.ident_t { i32 0, i32 514, i32 0, i32 22, ptr @0 }, align 8

; Function Attrs: mustprogress nounwind uwtable
define linkonce_odr noundef nonnull align 8 dereferenceable(8) ptr @_ZNSt10_Head_baseILm0EPN8LightGBM4TreeELb0EE7_M_headERKS3_(ptr noundef nonnull align 8 dereferenceable(8) %0) #5 comdat align 2 {
  %2 = alloca ptr, align 8
  store ptr %0, ptr %2, align 8
  %3 = load ptr, ptr %2, align 8
  %4 = getelementptr inbounds %"struct.std::_Head_base.130", ptr %3, i32 0, i32 0
  ret ptr %4
}

; Function Attrs: mustprogress nounwind uwtable
define linkonce_odr noundef nonnull align 8 dereferenceable(8) ptr @_ZNSt11_Tuple_implILm0EJPN8LightGBM4TreeESt14default_deleteIS1_EEE7_M_headERKS5_(ptr noundef nonnull align 8 dereferenceable(8) %0) #5 comdat align 2 {
  %2 = alloca ptr, align 8
  store ptr %0, ptr %2, align 8
  %3 = load ptr, ptr %2, align 8
  %4 = call noundef nonnull align 8 dereferenceable(8) ptr @_ZNSt10_Head_baseILm0EPN8LightGBM4TreeELb0EE7_M_headERKS3_(ptr noundef nonnull align 8 dereferenceable(8) %3) #3
  ret ptr %4
}

; Function Attrs: mustprogress nounwind uwtable
define linkonce_odr noundef nonnull align 8 dereferenceable(8) ptr @_ZSt12__get_helperILm0EPN8LightGBM4TreeEJSt14default_deleteIS1_EEERKT0_RKSt11_Tuple_implIXT_EJS5_DpT1_EE(ptr noundef nonnull align 8 dereferenceable(8) %0) #5 comdat {
  %2 = alloca ptr, align 8
  store ptr %0, ptr %2, align 8
  %3 = load ptr, ptr %2, align 8
  %4 = call noundef nonnull align 8 dereferenceable(8) ptr @_ZNSt11_Tuple_implILm0EJPN8LightGBM4TreeESt14default_deleteIS1_EEE7_M_headERKS5_(ptr noundef nonnull align 8 dereferenceable(8) %3) #3
  ret ptr %4
}

; Function Attrs: mustprogress nounwind uwtable
define linkonce_odr noundef nonnull align 8 dereferenceable(8) ptr @_ZSt3getILm0EJPN8LightGBM4TreeESt14default_deleteIS1_EEERKNSt13tuple_elementIXT_ESt5tupleIJDpT0_EEE4typeERKS9_(ptr noundef nonnull align 8 dereferenceable(8) %0) #5 comdat {
  %2 = alloca ptr, align 8
  store ptr %0, ptr %2, align 8
  %3 = load ptr, ptr %2, align 8
  %4 = call noundef nonnull align 8 dereferenceable(8) ptr @_ZSt12__get_helperILm0EPN8LightGBM4TreeEJSt14default_deleteIS1_EEERKT0_RKSt11_Tuple_implIXT_EJS5_DpT1_EE(ptr noundef nonnull align 8 dereferenceable(8) %3) #3
  ret ptr %4
}

; Function Attrs: mustprogress nounwind uwtable
define linkonce_odr noundef ptr @_ZNKSt15__uniq_ptr_implIN8LightGBM4TreeESt14default_deleteIS1_EE6_M_ptrEv(ptr noundef nonnull align 8 dereferenceable(8) %0) #5 comdat align 2 {
  %2 = alloca ptr, align 8
  store ptr %0, ptr %2, align 8
  %3 = load ptr, ptr %2, align 8
  %4 = getelementptr inbounds %"class.std::__uniq_ptr_impl.125", ptr %3, i32 0, i32 0
  %5 = call noundef nonnull align 8 dereferenceable(8) ptr @_ZSt3getILm0EJPN8LightGBM4TreeESt14default_deleteIS1_EEERKNSt13tuple_elementIXT_ESt5tupleIJDpT0_EEE4typeERKS9_(ptr noundef nonnull align 8 dereferenceable(8) %4) #3
  %6 = load ptr, ptr %5, align 8
  ret ptr %6
}

; Function Attrs: mustprogress nounwind uwtable
define linkonce_odr noundef ptr @_ZNKSt10unique_ptrIN8LightGBM4TreeESt14default_deleteIS1_EE3getEv(ptr noundef nonnull align 8 dereferenceable(8) %0) #5 comdat align 2 {
  %2 = alloca ptr, align 8
  store ptr %0, ptr %2, align 8
  %3 = load ptr, ptr %2, align 8
  %4 = getelementptr inbounds %"class.std::unique_ptr.123", ptr %3, i32 0, i32 0
  %5 = call noundef ptr @_ZNKSt15__uniq_ptr_implIN8LightGBM4TreeESt14default_deleteIS1_EE6_M_ptrEv(ptr noundef nonnull align 8 dereferenceable(8) %4) #3
  ret ptr %5
}

; Function Attrs: mustprogress nounwind uwtable
define linkonce_odr noundef ptr @_ZNKSt10unique_ptrIN8LightGBM4TreeESt14default_deleteIS1_EEptEv(ptr noundef nonnull align 8 dereferenceable(8) %0) #5 comdat align 2 {
  %2 = alloca ptr, align 8
  store ptr %0, ptr %2, align 8
  %3 = load ptr, ptr %2, align 8
  %4 = call noundef ptr @_ZNKSt10unique_ptrIN8LightGBM4TreeESt14default_deleteIS1_EE3getEv(ptr noundef nonnull align 8 dereferenceable(8) %3) #3
  ret ptr %4
}

; Function Attrs: mustprogress nounwind uwtable
define linkonce_odr noundef nonnull align 8 dereferenceable(8) ptr @_ZNSt6vectorISt10unique_ptrIN8LightGBM4TreeESt14default_deleteIS2_EESaIS5_EEixEm(ptr noundef nonnull align 8 dereferenceable(24) %0, i64 noundef %1) #5 comdat align 2 {
  %3 = alloca ptr, align 8
  %4 = alloca i64, align 8
  store ptr %0, ptr %3, align 8
  store i64 %1, ptr %4, align 8
  %5 = load ptr, ptr %3, align 8
  %6 = getelementptr inbounds %"struct.std::_Vector_base.67", ptr %5, i32 0, i32 0
  %7 = getelementptr inbounds %"struct.std::_Vector_base<std::unique_ptr<LightGBM::Tree>, std::allocator<std::unique_ptr<LightGBM::Tree>>>::_Vector_impl_data", ptr %6, i32 0, i32 0
  %8 = load ptr, ptr %7, align 8
  %9 = load i64, ptr %4, align 8
  %10 = getelementptr inbounds %"class.std::unique_ptr.123", ptr %8, i64 %9
  ret ptr %10
}

; Function Attrs: mustprogress nounwind uwtable
define linkonce_odr noundef i64 @_ZNKSt6vectorISt10unique_ptrIN8LightGBM4TreeESt14default_deleteIS2_EESaIS5_EE4sizeEv(ptr noundef nonnull align 8 dereferenceable(24) %0) #5 comdat align 2 {
  %2 = alloca ptr, align 8
  store ptr %0, ptr %2, align 8
  %3 = load ptr, ptr %2, align 8
  %4 = getelementptr inbounds %"struct.std::_Vector_base.67", ptr %3, i32 0, i32 0
  %5 = getelementptr inbounds %"struct.std::_Vector_base<std::unique_ptr<LightGBM::Tree>, std::allocator<std::unique_ptr<LightGBM::Tree>>>::_Vector_impl_data", ptr %4, i32 0, i32 1
  %6 = load ptr, ptr %5, align 8
  %7 = getelementptr inbounds %"struct.std::_Vector_base.67", ptr %3, i32 0, i32 0
  %8 = getelementptr inbounds %"struct.std::_Vector_base<std::unique_ptr<LightGBM::Tree>, std::allocator<std::unique_ptr<LightGBM::Tree>>>::_Vector_impl_data", ptr %7, i32 0, i32 0
  %9 = load ptr, ptr %8, align 8
  %10 = ptrtoint ptr %6 to i64
  %11 = ptrtoint ptr %9 to i64
  %12 = sub i64 %10, %11
  %13 = sdiv exact i64 %12, 8
  ret i64 %13
}

; Function Attrs: norecurse nounwind uwtable
define internal void @_ZN8LightGBM4GBDT11InitPredictEiib.omp_outlined(ptr noalias noundef %0, ptr noalias noundef %1, ptr noundef %2) #16 personality ptr @__gxx_personality_v0 {
  %4 = alloca ptr, align 8
  %5 = alloca ptr, align 8
  %6 = alloca ptr, align 8
  %7 = alloca i32, align 4
  %8 = alloca i32, align 4
  %9 = alloca i32, align 4
  %10 = alloca i32, align 4
  %11 = alloca i32, align 4
  %12 = alloca i32, align 4
  %13 = alloca i32, align 4
  %14 = alloca i32, align 4
  %15 = alloca i32, align 4
  store ptr %0, ptr %4, align 8
  store ptr %1, ptr %5, align 8
  store ptr %2, ptr %6, align 8
  %16 = load ptr, ptr %6, align 8
  %17 = getelementptr inbounds %"class.LightGBM::GBDT", ptr %16, i32 0, i32 16
  %18 = call noundef i64 @_ZNKSt6vectorISt10unique_ptrIN8LightGBM4TreeESt14default_deleteIS2_EESaIS5_EE4sizeEv(ptr noundef nonnull align 8 dereferenceable(24) %17) #3
  %19 = trunc i64 %18 to i32
  store i32 %19, ptr %8, align 4
  %20 = load i32, ptr %8, align 4
  %21 = sub nsw i32 %20, 0
  %22 = sdiv i32 %21, 1
  %23 = sub nsw i32 %22, 1
  store i32 %23, ptr %9, align 4
  store i32 0, ptr %10, align 4
  %24 = load i32, ptr %8, align 4
  %25 = icmp slt i32 0, %24
  br i1 %25, label %26, label %62

26:                                               ; preds = %3
  store i32 0, ptr %11, align 4
  %27 = load i32, ptr %9, align 4
  store i32 %27, ptr %12, align 4
  store i32 1, ptr %13, align 4
  store i32 0, ptr %14, align 4
  %28 = load ptr, ptr %4, align 8
  %29 = load i32, ptr %28, align 4
  call void @__kmpc_for_static_init_4(ptr @1, i32 %29, i32 34, ptr %14, ptr %11, ptr %12, ptr %13, i32 1, i32 1)
  %30 = load i32, ptr %12, align 4
  %31 = load i32, ptr %9, align 4
  %32 = icmp sgt i32 %30, %31
  br i1 %32, label %33, label %35

33:                                               ; preds = %26
  %34 = load i32, ptr %9, align 4
  br label %37

35:                                               ; preds = %26
  %36 = load i32, ptr %12, align 4
  br label %37

37:                                               ; preds = %35, %33
  %38 = phi i32 [ %34, %33 ], [ %36, %35 ]
  store i32 %38, ptr %12, align 4
  %39 = load i32, ptr %11, align 4
  store i32 %39, ptr %7, align 4
  br label %40

40:                                               ; preds = %55, %37
  %41 = load i32, ptr %7, align 4
  %42 = load i32, ptr %12, align 4
  %43 = icmp sle i32 %41, %42
  br i1 %43, label %44, label %58

44:                                               ; preds = %40
  %45 = load i32, ptr %7, align 4
  %46 = mul nsw i32 %45, 1
  %47 = add nsw i32 0, %46
  store i32 %47, ptr %15, align 4
  %48 = getelementptr inbounds %"class.LightGBM::GBDT", ptr %16, i32 0, i32 16
  %49 = load i32, ptr %15, align 4
  %50 = sext i32 %49 to i64
  %51 = call noundef nonnull align 8 dereferenceable(8) ptr @_ZNSt6vectorISt10unique_ptrIN8LightGBM4TreeESt14default_deleteIS2_EESaIS5_EEixEm(ptr noundef nonnull align 8 dereferenceable(24) %48, i64 noundef %50) #3
  %52 = call noundef ptr @_ZNKSt10unique_ptrIN8LightGBM4TreeESt14default_deleteIS1_EEptEv(ptr noundef nonnull align 8 dereferenceable(8) %51) #3
  invoke void @_ZN8LightGBM4Tree17RecomputeMaxDepthEv(ptr noundef nonnull align 8 dereferenceable(648) %52)
          to label %53 unwind label %63

53:                                               ; preds = %44
  br label %54

54:                                               ; preds = %53
  br label %55

55:                                               ; preds = %54
  %56 = load i32, ptr %7, align 4
  %57 = add nsw i32 %56, 1
  store i32 %57, ptr %7, align 4
  br label %40

58:                                               ; preds = %40
  br label %59

59:                                               ; preds = %58
  %60 = load ptr, ptr %4, align 8
  %61 = load i32, ptr %60, align 4
  call void @__kmpc_for_static_fini(ptr @1, i32 %61)
  br label %62

62:                                               ; preds = %59, %3
  ret void

63:                                               ; preds = %44
  %64 = landingpad { ptr, i32 }
          catch ptr null
  %65 = extractvalue { ptr, i32 } %64, 0
  call void @__clang_call_terminate(ptr %65) #17
  unreachable
}