; Function Attrs: norecurse nounwind uwtable
define internal void @_ZN8LightGBM4GBDT11InitPredictEiib.omp_outlined(ptr noalias nocapture noundef readonly %0, ptr noalias nocapture readnone %1, ptr nocapture noundef readonly %2) #14 personality ptr @__gxx_personality_v0 {
  %4 = alloca i32, align 4
  %5 = alloca i32, align 4
  %6 = alloca i32, align 4
  %7 = alloca i32, align 4
  %8 = getelementptr inbounds i8, ptr %2, i64 224
  %9 = getelementptr inbounds i8, ptr %2, i64 232
  %10 = load ptr, ptr %9, align 8
  %11 = load ptr, ptr %8, align 8
  %12 = ptrtoint ptr %10 to i64
  %13 = ptrtoint ptr %11 to i64
  %14 = sub i64 %12, %13
  %15 = lshr exact i64 %14, 3
  %16 = trunc i64 %15 to i32
  %17 = icmp sgt i32 %16, 0
  br i1 %17, label %18, label %31

18:                                               ; preds = %3
  %19 = add nsw i32 %16, -1
  store i32 0, ptr %4, align 4
  store i32 %19, ptr %5, align 4
  store i32 1, ptr %6, align 4
  store i32 0, ptr %7, align 4
  %20 = load i32, ptr %0, align 4
  call void @__kmpc_for_static_init_4(ptr nonnull @1, i32 %20, i32 34, ptr nonnull %7, ptr nonnull %4, ptr nonnull %5, ptr nonnull %6, i32 1, i32 1)
  %21 = load i32, ptr %5, align 4
  %22 = call i32 @llvm.smin.i32(i32 %21, i32 %19)
  store i32 %22, ptr %5, align 4
  %23 = load i32, ptr %4, align 4
  %.not11 = icmp sgt i32 %23, %22
  br i1 %.not11, label %._crit_edge, label %.lr.ph.preheader

.lr.ph.preheader:                                 ; preds = %18
  %24 = sext i32 %23 to i64
  br label %.lr.ph

.lr.ph:                                           ; preds = %.lr.ph.preheader, %28
  %indvars.iv = phi i64 [ %24, %.lr.ph.preheader ], [ %indvars.iv.next, %28 ]
  %25 = load ptr, ptr %8, align 8
  %26 = getelementptr inbounds %"class.std::unique_ptr.123", ptr %25, i64 %indvars.iv
  %27 = load ptr, ptr %26, align 8
  invoke void @_ZN8LightGBM4Tree17RecomputeMaxDepthEv(ptr noundef nonnull align 8 dereferenceable(648) %27)
          to label %28 unwind label %32

28:                                               ; preds = %.lr.ph
  %indvars.iv.next = add nsw i64 %indvars.iv, 1
  %29 = load i32, ptr %5, align 4
  %30 = sext i32 %29 to i64
  %.not.not = icmp slt i64 %indvars.iv, %30
  br i1 %.not.not, label %.lr.ph, label %._crit_edge

._crit_edge:                                      ; preds = %28, %18
  call void @__kmpc_for_static_fini(ptr nonnull @1, i32 %20)
  br label %31

31:                                               ; preds = %._crit_edge, %3
  ret void

32:                                               ; preds = %.lr.ph
  %33 = landingpad { ptr, i32 }
          catch ptr null
  %34 = extractvalue { ptr, i32 } %33, 0
  call void @__clang_call_terminate(ptr %34) #27
  unreachable
}